; Function Attrs: mustprogress uwtable
define dso_local void @_Z37_ConvertDirtyBitsToLocatorSetForTacosjPN32pxrInternal_v0_24__pxrReserved__22HdDataSourceLocatorSetE(i32 noundef %0, ptr noundef %1) #3 personality ptr @__gxx_personality_v0 {
  %3 = alloca %"class.pxrInternal_v0_24__pxrReserved__::HdDataSourceLocator", align 8
  %4 = alloca %"class.pxrInternal_v0_24__pxrReserved__::HdDataSourceLocator", align 8
  %5 = alloca %"class.pxrInternal_v0_24__pxrReserved__::HdDataSourceLocator", align 8
  %6 = and i32 %0, 1
  %.not = icmp eq i32 %6, 0
  br i1 %.not, label %_ZN32pxrInternal_v0_24__pxrReserved__19HdDataSourceLocatorD2Ev.exit, label %7

7:                                                ; preds = %2
  %8 = tail call fastcc noundef ptr @_ZNK32pxrInternal_v0_24__pxrReserved__12TfStaticDataIN12_GLOBAL__N_130_tokens_PrivateStaticTokenTypeENS_27Tf_StaticDataDefaultFactoryIS2_EEEptEv()
  %9 = tail call fastcc noundef ptr @_ZNK32pxrInternal_v0_24__pxrReserved__12TfStaticDataIN12_GLOBAL__N_130_tokens_PrivateStaticTokenTypeENS_27Tf_StaticDataDefaultFactoryIS2_EEEptEv()
  %10 = getelementptr inbounds nuw i8, ptr %9, i64 16
  call void @_ZN32pxrInternal_v0_24__pxrReserved__19HdDataSourceLocatorC1ERKNS_7TfTokenES3_(ptr noundef nonnull align 8 dereferenceable(56) %3, ptr noundef nonnull align 8 dereferenceable(8) %8, ptr noundef nonnull align 8 dereferenceable(8) %10)
  invoke void @_ZN32pxrInternal_v0_24__pxrReserved__22HdDataSourceLocatorSet6insertERKNS_19HdDataSourceLocatorE(ptr noundef nonnull align 8 dereferenceable(456) %1, ptr noundef nonnull align 8 dereferenceable(56) %3)
          to label %11 unwind label %32

11:                                               ; preds = %7
  %12 = getelementptr inbounds nuw i8, ptr %3, i64 52
  %13 = load i32, ptr %12, align 4
  %14 = icmp ult i32 %13, 7
  %15 = load ptr, ptr %3, align 8
  %spec.select.i.i.i.i.i = select i1 %14, ptr %3, ptr %15
  %16 = getelementptr inbounds nuw i8, ptr %3, i64 48
  %17 = load i32, ptr %16, align 8
  %18 = zext i32 %17 to i64
  %19 = getelementptr inbounds nuw %"class.pxrInternal_v0_24__pxrReserved__::TfToken", ptr %spec.select.i.i.i.i.i, i64 %18
  %.not7.i.i.i = icmp eq i32 %17, 0
  br i1 %.not7.i.i.i, label %_ZN32pxrInternal_v0_24__pxrReserved__13TfSmallVectorINS_7TfTokenELj6EE9_DestructEv.exit.i.i, label %.lr.ph.i.i.i

.lr.ph.i.i.i:                                     ; preds = %11, %_ZN32pxrInternal_v0_24__pxrReserved__7TfTokenD2Ev.exit.i.i.i
  %.08.i.i.i = phi ptr [ %27, %_ZN32pxrInternal_v0_24__pxrReserved__7TfTokenD2Ev.exit.i.i.i ], [ %spec.select.i.i.i.i.i, %11 ]
  %20 = load ptr, ptr %.08.i.i.i, align 8
  %21 = ptrtoint ptr %20 to i64
  %22 = and i64 %21, 7
  %.not.i.i.i.i.i = icmp eq i64 %22, 0
  br i1 %.not.i.i.i.i.i, label %_ZN32pxrInternal_v0_24__pxrReserved__7TfTokenD2Ev.exit.i.i.i, label %23

23:                                               ; preds = %.lr.ph.i.i.i
  %24 = and i64 %21, -8
  %25 = inttoptr i64 %24 to ptr
  %26 = atomicrmw sub ptr %25, i32 2 release, align 4
  br label %_ZN32pxrInternal_v0_24__pxrReserved__7TfTokenD2Ev.exit.i.i.i

_ZN32pxrInternal_v0_24__pxrReserved__7TfTokenD2Ev.exit.i.i.i: ; preds = %23, %.lr.ph.i.i.i
  %27 = getelementptr inbounds nuw i8, ptr %.08.i.i.i, i64 8
  %.not.i.i.i = icmp eq ptr %27, %19
  br i1 %.not.i.i.i, label %_ZN32pxrInternal_v0_24__pxrReserved__13TfSmallVectorINS_7TfTokenELj6EE9_DestructEv.exit.loopexit.i.i, label %.lr.ph.i.i.i, !llvm.loop !5

_ZN32pxrInternal_v0_24__pxrReserved__13TfSmallVectorINS_7TfTokenELj6EE9_DestructEv.exit.loopexit.i.i: ; preds = %_ZN32pxrInternal_v0_24__pxrReserved__7TfTokenD2Ev.exit.i.i.i
  %.pre.i.i = load i32, ptr %12, align 4
  br label %_ZN32pxrInternal_v0_24__pxrReserved__13TfSmallVectorINS_7TfTokenELj6EE9_DestructEv.exit.i.i

_ZN32pxrInternal_v0_24__pxrReserved__13TfSmallVectorINS_7TfTokenELj6EE9_DestructEv.exit.i.i: ; preds = %_ZN32pxrInternal_v0_24__pxrReserved__13TfSmallVectorINS_7TfTokenELj6EE9_DestructEv.exit.loopexit.i.i, %11
  %28 = phi i32 [ %.pre.i.i, %_ZN32pxrInternal_v0_24__pxrReserved__13TfSmallVectorINS_7TfTokenELj6EE9_DestructEv.exit.loopexit.i.i ], [ %13, %11 ]
  %29 = icmp ult i32 %28, 7
  br i1 %29, label %_ZN32pxrInternal_v0_24__pxrReserved__19HdDataSourceLocatorD2Ev.exit, label %30

30:                                               ; preds = %_ZN32pxrInternal_v0_24__pxrReserved__13TfSmallVectorINS_7TfTokenELj6EE9_DestructEv.exit.i.i
  %31 = load ptr, ptr %3, align 8
  call void @free(ptr noundef %31) #14
  br label %_ZN32pxrInternal_v0_24__pxrReserved__19HdDataSourceLocatorD2Ev.exit

32:                                               ; preds = %7
  %33 = landingpad { ptr, i32 }
          cleanup
  br label %90

_ZN32pxrInternal_v0_24__pxrReserved__19HdDataSourceLocatorD2Ev.exit: ; preds = %30, %_ZN32pxrInternal_v0_24__pxrReserved__13TfSmallVectorINS_7TfTokenELj6EE9_DestructEv.exit.i.i, %2
  %34 = and i32 %0, 2
  %.not8 = icmp eq i32 %34, 0
  br i1 %.not8, label %_ZN32pxrInternal_v0_24__pxrReserved__19HdDataSourceLocatorD2Ev.exit21, label %35

35:                                               ; preds = %_ZN32pxrInternal_v0_24__pxrReserved__19HdDataSourceLocatorD2Ev.exit
  %36 = call fastcc noundef ptr @_ZNK32pxrInternal_v0_24__pxrReserved__12TfStaticDataIN12_GLOBAL__N_130_tokens_PrivateStaticTokenTypeENS_27Tf_StaticDataDefaultFactoryIS2_EEEptEv()
  %37 = call fastcc noundef ptr @_ZNK32pxrInternal_v0_24__pxrReserved__12TfStaticDataIN12_GLOBAL__N_130_tokens_PrivateStaticTokenTypeENS_27Tf_StaticDataDefaultFactoryIS2_EEEptEv()
  %38 = getelementptr inbounds nuw i8, ptr %37, i64 24
  call void @_ZN32pxrInternal_v0_24__pxrReserved__19HdDataSourceLocatorC1ERKNS_7TfTokenES3_(ptr noundef nonnull align 8 dereferenceable(56) %4, ptr noundef nonnull align 8 dereferenceable(8) %36, ptr noundef nonnull align 8 dereferenceable(8) %38)
  invoke void @_ZN32pxrInternal_v0_24__pxrReserved__22HdDataSourceLocatorSet6insertERKNS_19HdDataSourceLocatorE(ptr noundef nonnull align 8 dereferenceable(456) %1, ptr noundef nonnull align 8 dereferenceable(56) %4)
          to label %39 unwind label %60

39:                                               ; preds = %35
  %40 = getelementptr inbounds nuw i8, ptr %4, i64 52
  %41 = load i32, ptr %40, align 4
  %42 = icmp ult i32 %41, 7
  %43 = load ptr, ptr %4, align 8
  %spec.select.i.i.i.i.i11 = select i1 %42, ptr %4, ptr %43
  %44 = getelementptr inbounds nuw i8, ptr %4, i64 48
  %45 = load i32, ptr %44, align 8
  %46 = zext i32 %45 to i64
  %47 = getelementptr inbounds nuw %"class.pxrInternal_v0_24__pxrReserved__::TfToken", ptr %spec.select.i.i.i.i.i11, i64 %46
  %.not7.i.i.i12 = icmp eq i32 %45, 0
  br i1 %.not7.i.i.i12, label %_ZN32pxrInternal_v0_24__pxrReserved__13TfSmallVectorINS_7TfTokenELj6EE9_DestructEv.exit.i.i20, label %.lr.ph.i.i.i13

.lr.ph.i.i.i13:                                   ; preds = %39, %_ZN32pxrInternal_v0_24__pxrReserved__7TfTokenD2Ev.exit.i.i.i16
  %.08.i.i.i14 = phi ptr [ %55, %_ZN32pxrInternal_v0_24__pxrReserved__7TfTokenD2Ev.exit.i.i.i16 ], [ %spec.select.i.i.i.i.i11, %39 ]
  %48 = load ptr, ptr %.08.i.i.i14, align 8
  %49 = ptrtoint ptr %48 to i64
  %50 = and i64 %49, 7
  %.not.i.i.i.i.i15 = icmp eq i64 %50, 0
  br i1 %.not.i.i.i.i.i15, label %_ZN32pxrInternal_v0_24__pxrReserved__7TfTokenD2Ev.exit.i.i.i16, label %51

51:                                               ; preds = %.lr.ph.i.i.i13
  %52 = and i64 %49, -8
  %53 = inttoptr i64 %52 to ptr
  %54 = atomicrmw sub ptr %53, i32 2 release, align 4
  br label %_ZN32pxrInternal_v0_24__pxrReserved__7TfTokenD2Ev.exit.i.i.i16

_ZN32pxrInternal_v0_24__pxrReserved__7TfTokenD2Ev.exit.i.i.i16: ; preds = %51, %.lr.ph.i.i.i13
  %55 = getelementptr inbounds nuw i8, ptr %.08.i.i.i14, i64 8
  %.not.i.i.i17 = icmp eq ptr %55, %47
  br i1 %.not.i.i.i17, label %_ZN32pxrInternal_v0_24__pxrReserved__13TfSmallVectorINS_7TfTokenELj6EE9_DestructEv.exit.loopexit.i.i18, label %.lr.ph.i.i.i13, !llvm.loop !5

_ZN32pxrInternal_v0_24__pxrReserved__13TfSmallVectorINS_7TfTokenELj6EE9_DestructEv.exit.loopexit.i.i18: ; preds = %_ZN32pxrInternal_v0_24__pxrReserved__7TfTokenD2Ev.exit.i.i.i16
  %.pre.i.i19 = load i32, ptr %40, align 4
  br label %_ZN32pxrInternal_v0_24__pxrReserved__13TfSmallVectorINS_7TfTokenELj6EE9_DestructEv.exit.i.i20

_ZN32pxrInternal_v0_24__pxrReserved__13TfSmallVectorINS_7TfTokenELj6EE9_DestructEv.exit.i.i20: ; preds = %_ZN32pxrInternal_v0_24__pxrReserved__13TfSmallVectorINS_7TfTokenELj6EE9_DestructEv.exit.loopexit.i.i18, %39
  %56 = phi i32 [ %.pre.i.i19, %_ZN32pxrInternal_v0_24__pxrReserved__13TfSmallVectorINS_7TfTokenELj6EE9_DestructEv.exit.loopexit.i.i18 ], [ %41, %39 ]
  %57 = icmp ult i32 %56, 7
  br i1 %57, label %_ZN32pxrInternal_v0_24__pxrReserved__19HdDataSourceLocatorD2Ev.exit21, label %58

58:                                               ; preds = %_ZN32pxrInternal_v0_24__pxrReserved__13TfSmallVectorINS_7TfTokenELj6EE9_DestructEv.exit.i.i20
  %59 = load ptr, ptr %4, align 8
  call void @free(ptr noundef %59) #14
  br label %_ZN32pxrInternal_v0_24__pxrReserved__19HdDataSourceLocatorD2Ev.exit21

60:                                               ; preds = %35
  %61 = landingpad { ptr, i32 }
          cleanup
  br label %90

_ZN32pxrInternal_v0_24__pxrReserved__19HdDataSourceLocatorD2Ev.exit21: ; preds = %58, %_ZN32pxrInternal_v0_24__pxrReserved__13TfSmallVectorINS_7TfTokenELj6EE9_DestructEv.exit.i.i20, %_ZN32pxrInternal_v0_24__pxrReserved__19HdDataSourceLocatorD2Ev.exit
  %62 = and i32 %0, 4
  %.not9 = icmp eq i32 %62, 0
  br i1 %.not9, label %_ZN32pxrInternal_v0_24__pxrReserved__19HdDataSourceLocatorD2Ev.exit32, label %63

63:                                               ; preds = %_ZN32pxrInternal_v0_24__pxrReserved__19HdDataSourceLocatorD2Ev.exit21
  %64 = call fastcc noundef ptr @_ZNK32pxrInternal_v0_24__pxrReserved__12TfStaticDataIN12_GLOBAL__N_130_tokens_PrivateStaticTokenTypeENS_27Tf_StaticDataDefaultFactoryIS2_EEEptEv()
  %65 = call fastcc noundef ptr @_ZNK32pxrInternal_v0_24__pxrReserved__12TfStaticDataIN12_GLOBAL__N_130_tokens_PrivateStaticTokenTypeENS_27Tf_StaticDataDefaultFactoryIS2_EEEptEv()
  %66 = getelementptr inbounds nuw i8, ptr %65, i64 32
  call void @_ZN32pxrInternal_v0_24__pxrReserved__19HdDataSourceLocatorC1ERKNS_7TfTokenES3_(ptr noundef nonnull align 8 dereferenceable(56) %5, ptr noundef nonnull align 8 dereferenceable(8) %64, ptr noundef nonnull align 8 dereferenceable(8) %66)
  invoke void @_ZN32pxrInternal_v0_24__pxrReserved__22HdDataSourceLocatorSet6insertERKNS_19HdDataSourceLocatorE(ptr noundef nonnull align 8 dereferenceable(456) %1, ptr noundef nonnull align 8 dereferenceable(56) %5)
          to label %67 unwind label %88

67:                                               ; preds = %63
  %68 = getelementptr inbounds nuw i8, ptr %5, i64 52
  %69 = load i32, ptr %68, align 4
  %70 = icmp ult i32 %69, 7
  %71 = load ptr, ptr %5, align 8
  %spec.select.i.i.i.i.i22 = select i1 %70, ptr %5, ptr %71
  %72 = getelementptr inbounds nuw i8, ptr %5, i64 48
  %73 = load i32, ptr %72, align 8
  %74 = zext i32 %73 to i64
  %75 = getelementptr inbounds nuw %"class.pxrInternal_v0_24__pxrReserved__::TfToken", ptr %spec.select.i.i.i.i.i22, i64 %74
  %.not7.i.i.i23 = icmp eq i32 %73, 0
  br i1 %.not7.i.i.i23, label %_ZN32pxrInternal_v0_24__pxrReserved__13TfSmallVectorINS_7TfTokenELj6EE9_DestructEv.exit.i.i31, label %.lr.ph.i.i.i24

.lr.ph.i.i.i24:                                   ; preds = %67, %_ZN32pxrInternal_v0_24__pxrReserved__7TfTokenD2Ev.exit.i.i.i27
  %.08.i.i.i25 = phi ptr [ %83, %_ZN32pxrInternal_v0_24__pxrReserved__7TfTokenD2Ev.exit.i.i.i27 ], [ %spec.select.i.i.i.i.i22, %67 ]
  %76 = load ptr, ptr %.08.i.i.i25, align 8
  %77 = ptrtoint ptr %76 to i64
  %78 = and i64 %77, 7
  %.not.i.i.i.i.i26 = icmp eq i64 %78, 0
  br i1 %.not.i.i.i.i.i26, label %_ZN32pxrInternal_v0_24__pxrReserved__7TfTokenD2Ev.exit.i.i.i27, label %79

79:                                               ; preds = %.lr.ph.i.i.i24
  %80 = and i64 %77, -8
  %81 = inttoptr i64 %80 to ptr
  %82 = atomicrmw sub ptr %81, i32 2 release, align 4
  br label %_ZN32pxrInternal_v0_24__pxrReserved__7TfTokenD2Ev.exit.i.i.i27

_ZN32pxrInternal_v0_24__pxrReserved__7TfTokenD2Ev.exit.i.i.i27: ; preds = %79, %.lr.ph.i.i.i24
  %83 = getelementptr inbounds nuw i8, ptr %.08.i.i.i25, i64 8
  %.not.i.i.i28 = icmp eq ptr %83, %75
  br i1 %.not.i.i.i28, label %_ZN32pxrInternal_v0_24__pxrReserved__13TfSmallVectorINS_7TfTokenELj6EE9_DestructEv.exit.loopexit.i.i29, label %.lr.ph.i.i.i24, !llvm.loop !5

_ZN32pxrInternal_v0_24__pxrReserved__13TfSmallVectorINS_7TfTokenELj6EE9_DestructEv.exit.loopexit.i.i29: ; preds = %_ZN32pxrInternal_v0_24__pxrReserved__7TfTokenD2Ev.exit.i.i.i27
  %.pre.i.i30 = load i32, ptr %68, align 4
  br label %_ZN32pxrInternal_v0_24__pxrReserved__13TfSmallVectorINS_7TfTokenELj6EE9_DestructEv.exit.i.i31

_ZN32pxrInternal_v0_24__pxrReserved__13TfSmallVectorINS_7TfTokenELj6EE9_DestructEv.exit.i.i31: ; preds = %_ZN32pxrInternal_v0_24__pxrReserved__13TfSmallVectorINS_7TfTokenELj6EE9_DestructEv.exit.loopexit.i.i29, %67
  %84 = phi i32 [ %.pre.i.i30, %_ZN32pxrInternal_v0_24__pxrReserved__13TfSmallVectorINS_7TfTokenELj6EE9_DestructEv.exit.loopexit.i.i29 ], [ %69, %67 ]
  %85 = icmp ult i32 %84, 7
  br i1 %85, label %_ZN32pxrInternal_v0_24__pxrReserved__19HdDataSourceLocatorD2Ev.exit32, label %86

86:                                               ; preds = %_ZN32pxrInternal_v0_24__pxrReserved__13TfSmallVectorINS_7TfTokenELj6EE9_DestructEv.exit.i.i31
  %87 = load ptr, ptr %5, align 8
  call void @free(ptr noundef %87) #14
  br label %_ZN32pxrInternal_v0_24__pxrReserved__19HdDataSourceLocatorD2Ev.exit32

88:                                               ; preds = %63
  %89 = landingpad { ptr, i32 }
          cleanup
  br label %90

_ZN32pxrInternal_v0_24__pxrReserved__19HdDataSourceLocatorD2Ev.exit32: ; preds = %86, %_ZN32pxrInternal_v0_24__pxrReserved__13TfSmallVectorINS_7TfTokenELj6EE9_DestructEv.exit.i.i31, %_ZN32pxrInternal_v0_24__pxrReserved__19HdDataSourceLocatorD2Ev.exit21
  ret void

90:                                               ; preds = %88, %60, %32
  %.sink = phi ptr [ %5, %88 ], [ %4, %60 ], [ %3, %32 ]
  %.pn = phi { ptr, i32 } [ %89, %88 ], [ %61, %60 ], [ %33, %32 ]
  call void @_ZN32pxrInternal_v0_24__pxrReserved__19HdDataSourceLocatorD2Ev(ptr noundef nonnull align 8 dereferenceable(56) %.sink) #14
  resume { ptr, i32 } %.pn
}